target datalayout = "e-m:e-p270:32:32-p271:32:32-p272:64:64-i64:64-i128:128-f80:128-n8:16:32:64-S128"
target triple = "x86_64-pc-linux-gnu"

%struct.SDL_BlitInfo = type { ptr, ptr, i32, i32, i32, i32, ptr, ptr, i32, i32, i32, i32, ptr, ptr, ptr, ptr, ptr, ptr, i32, i32, i8, i8, i8, i8 }

; Function Attrs: nounwind uwtable
define internal void @SDL_Blit_BGRA8888_XBGR8888_Modulate_Scale(ptr noundef %0) #0 {
  %2 = alloca ptr, align 8
  %3 = alloca i32, align 4
  %4 = alloca i32, align 4
  %5 = alloca i32, align 4
  %6 = alloca i32, align 4
  %7 = alloca i32, align 4
  %8 = alloca i32, align 4
  %9 = alloca i32, align 4
  %10 = alloca i32, align 4
  %11 = alloca i64, align 8
  %12 = alloca i64, align 8
  %13 = alloca i64, align 8
  %14 = alloca i64, align 8
  %15 = alloca i64, align 8
  %16 = alloca i64, align 8
  %17 = alloca ptr, align 8
  %18 = alloca ptr, align 8
  %19 = alloca i32, align 4
  %20 = alloca i16, align 2
  %21 = alloca i16, align 2
  %22 = alloca i16, align 2
  store ptr %0, ptr %2, align 8
  call void @llvm.lifetime.start.p0(i64 4, ptr %3) #2
  %23 = load ptr, ptr %2, align 8
  %24 = getelementptr inbounds nuw %struct.SDL_BlitInfo, ptr %23, i32 0, i32 18
  %25 = load i32, ptr %24, align 8
  store i32 %25, ptr %3, align 4
  call void @llvm.lifetime.start.p0(i64 4, ptr %4) #2
  %26 = load ptr, ptr %2, align 8
  %27 = getelementptr inbounds nuw %struct.SDL_BlitInfo, ptr %26, i32 0, i32 20
  %28 = load i8, ptr %27, align 8
  %29 = zext i8 %28 to i32
  store i32 %29, ptr %4, align 4
  call void @llvm.lifetime.start.p0(i64 4, ptr %5) #2
  %30 = load ptr, ptr %2, align 8
  %31 = getelementptr inbounds nuw %struct.SDL_BlitInfo, ptr %30, i32 0, i32 21
  %32 = load i8, ptr %31, align 1
  %33 = zext i8 %32 to i32
  store i32 %33, ptr %5, align 4
  call void @llvm.lifetime.start.p0(i64 4, ptr %6) #2
  %34 = load ptr, ptr %2, align 8
  %35 = getelementptr inbounds nuw %struct.SDL_BlitInfo, ptr %34, i32 0, i32 22
  %36 = load i8, ptr %35, align 2
  %37 = zext i8 %36 to i32
  store i32 %37, ptr %6, align 4
  call void @llvm.lifetime.start.p0(i64 4, ptr %7) #2
  call void @llvm.lifetime.start.p0(i64 4, ptr %8) #2
  call void @llvm.lifetime.start.p0(i64 4, ptr %9) #2
  call void @llvm.lifetime.start.p0(i64 4, ptr %10) #2
  call void @llvm.lifetime.start.p0(i64 8, ptr %11) #2
  call void @llvm.lifetime.start.p0(i64 8, ptr %12) #2
  call void @llvm.lifetime.start.p0(i64 8, ptr %13) #2
  call void @llvm.lifetime.start.p0(i64 8, ptr %14) #2
  call void @llvm.lifetime.start.p0(i64 8, ptr %15) #2
  call void @llvm.lifetime.start.p0(i64 8, ptr %16) #2
  %38 = load ptr, ptr %2, align 8
  %39 = getelementptr inbounds nuw %struct.SDL_BlitInfo, ptr %38, i32 0, i32 3
  %40 = load i32, ptr %39, align 4
  %41 = sext i32 %40 to i64
  %42 = shl i64 %41, 16
  %43 = load ptr, ptr %2, align 8
  %44 = getelementptr inbounds nuw %struct.SDL_BlitInfo, ptr %43, i32 0, i32 9
  %45 = load i32, ptr %44, align 4
  %46 = sext i32 %45 to i64
  %47 = udiv i64 %42, %46
  store i64 %47, ptr %15, align 8
  %48 = load ptr, ptr %2, align 8
  %49 = getelementptr inbounds nuw %struct.SDL_BlitInfo, ptr %48, i32 0, i32 2
  %50 = load i32, ptr %49, align 8
  %51 = sext i32 %50 to i64
  %52 = shl i64 %51, 16
  %53 = load ptr, ptr %2, align 8
  %54 = getelementptr inbounds nuw %struct.SDL_BlitInfo, ptr %53, i32 0, i32 8
  %55 = load i32, ptr %54, align 8
  %56 = sext i32 %55 to i64
  %57 = udiv i64 %52, %56
  store i64 %57, ptr %16, align 8
  %58 = load i64, ptr %15, align 8
  %59 = udiv i64 %58, 2
  store i64 %59, ptr %13, align 8
  br label %60

60:                                               ; preds = %193, %1
  %61 = load ptr, ptr %2, align 8
  %62 = getelementptr inbounds nuw %struct.SDL_BlitInfo, ptr %61, i32 0, i32 9
  %63 = load i32, ptr %62, align 4
  %64 = add nsw i32 %63, -1
  store i32 %64, ptr %62, align 4
  %65 = icmp ne i32 %63, 0
  br i1 %65, label %66, label %205

66:                                               ; preds = %60
  call void @llvm.lifetime.start.p0(i64 8, ptr %17) #2
  store ptr null, ptr %17, align 8
  call void @llvm.lifetime.start.p0(i64 8, ptr %18) #2
  %67 = load ptr, ptr %2, align 8
  %68 = getelementptr inbounds nuw %struct.SDL_BlitInfo, ptr %67, i32 0, i32 7
  %69 = load ptr, ptr %68, align 8
  store ptr %69, ptr %18, align 8
  call void @llvm.lifetime.start.p0(i64 4, ptr %19) #2
  %70 = load ptr, ptr %2, align 8
  %71 = getelementptr inbounds nuw %struct.SDL_BlitInfo, ptr %70, i32 0, i32 8
  %72 = load i32, ptr %71, align 8
  store i32 %72, ptr %19, align 4
  %73 = load i64, ptr %16, align 8
  %74 = udiv i64 %73, 2
  store i64 %74, ptr %14, align 8
  %75 = load i64, ptr %13, align 8
  %76 = lshr i64 %75, 16
  store i64 %76, ptr %11, align 8
  br label %77

77:                                               ; preds = %178, %66
  %78 = load i32, ptr %19, align 4
  %79 = add nsw i32 %78, -1
  store i32 %79, ptr %19, align 4
  %80 = icmp ne i32 %78, 0
  br i1 %80, label %81, label %193

81:                                               ; preds = %77
  %82 = load i64, ptr %14, align 8
  %83 = lshr i64 %82, 16
  store i64 %83, ptr %12, align 8
  %84 = load ptr, ptr %2, align 8
  %85 = getelementptr inbounds nuw %struct.SDL_BlitInfo, ptr %84, i32 0, i32 1
  %86 = load ptr, ptr %85, align 8
  %87 = load i64, ptr %11, align 8
  %88 = load ptr, ptr %2, align 8
  %89 = getelementptr inbounds nuw %struct.SDL_BlitInfo, ptr %88, i32 0, i32 4
  %90 = load i32, ptr %89, align 8
  %91 = sext i32 %90 to i64
  %92 = mul i64 %87, %91
  %93 = getelementptr inbounds nuw i8, ptr %86, i64 %92
  %94 = load i64, ptr %12, align 8
  %95 = mul i64 %94, 4
  %96 = getelementptr inbounds nuw i8, ptr %93, i64 %95
  store ptr %96, ptr %17, align 8
  %97 = load ptr, ptr %17, align 8
  %98 = load i32, ptr %97, align 4
  store i32 %98, ptr %7, align 4
  %99 = load i32, ptr %7, align 4
  %100 = lshr i32 %99, 24
  %101 = trunc i32 %100 to i8
  %102 = zext i8 %101 to i32
  store i32 %102, ptr %10, align 4
  %103 = load i32, ptr %7, align 4
  %104 = lshr i32 %103, 16
  %105 = trunc i32 %104 to i8
  %106 = zext i8 %105 to i32
  store i32 %106, ptr %9, align 4
  %107 = load i32, ptr %7, align 4
  %108 = lshr i32 %107, 8
  %109 = trunc i32 %108 to i8
  %110 = zext i8 %109 to i32
  store i32 %110, ptr %8, align 4
  %111 = load i32, ptr %3, align 4
  %112 = and i32 %111, 1
  %113 = icmp ne i32 %112, 0
  br i1 %113, label %114, label %178

114:                                              ; preds = %81
  br label %115

115:                                              ; preds = %114
  call void @llvm.lifetime.start.p0(i64 2, ptr %20) #2
  %116 = load i32, ptr %8, align 4
  %117 = load i32, ptr %4, align 4
  %118 = mul i32 %116, %117
  %119 = trunc i32 %118 to i16
  store i16 %119, ptr %20, align 2
  %120 = load i16, ptr %20, align 2
  %121 = zext i16 %120 to i32
  %122 = add i32 %121, 1
  %123 = trunc i32 %122 to i16
  store i16 %123, ptr %20, align 2
  %124 = load i16, ptr %20, align 2
  %125 = zext i16 %124 to i32
  %126 = ashr i32 %125, 8
  %127 = load i16, ptr %20, align 2
  %128 = zext i16 %127 to i32
  %129 = add nsw i32 %128, %126
  %130 = trunc i32 %129 to i16
  store i16 %130, ptr %20, align 2
  %131 = load i16, ptr %20, align 2
  %132 = zext i16 %131 to i32
  %133 = ashr i32 %132, 8
  store i32 %133, ptr %8, align 4
  call void @llvm.lifetime.end.p0(i64 2, ptr %20) #2
  br label %134

134:                                              ; preds = %115
  br label %135

135:                                              ; preds = %134
  br label %136

136:                                              ; preds = %135
  call void @llvm.lifetime.start.p0(i64 2, ptr %21) #2
  %137 = load i32, ptr %9, align 4
  %138 = load i32, ptr %5, align 4
  %139 = mul i32 %137, %138
  %140 = trunc i32 %139 to i16
  store i16 %140, ptr %21, align 2
  %141 = load i16, ptr %21, align 2
  %142 = zext i16 %141 to i32
  %143 = add i32 %142, 1
  %144 = trunc i32 %143 to i16
  store i16 %144, ptr %21, align 2
  %145 = load i16, ptr %21, align 2
  %146 = zext i16 %145 to i32
  %147 = ashr i32 %146, 8
  %148 = load i16, ptr %21, align 2
  %149 = zext i16 %148 to i32
  %150 = add nsw i32 %149, %147
  %151 = trunc i32 %150 to i16
  store i16 %151, ptr %21, align 2
  %152 = load i16, ptr %21, align 2
  %153 = zext i16 %152 to i32
  %154 = ashr i32 %153, 8
  store i32 %154, ptr %9, align 4
  call void @llvm.lifetime.end.p0(i64 2, ptr %21) #2
  br label %155

155:                                              ; preds = %136
  br label %156

156:                                              ; preds = %155
  br label %157

157:                                              ; preds = %156
  call void @llvm.lifetime.start.p0(i64 2, ptr %22) #2
  %158 = load i32, ptr %10, align 4
  %159 = load i32, ptr %6, align 4
  %160 = mul i32 %158, %159
  %161 = trunc i32 %160 to i16
  store i16 %161, ptr %22, align 2
  %162 = load i16, ptr %22, align 2
  %163 = zext i16 %162 to i32
  %164 = add i32 %163, 1
  %165 = trunc i32 %164 to i16
  store i16 %165, ptr %22, align 2
  %166 = load i16, ptr %22, align 2
  %167 = zext i16 %166 to i32
  %168 = ashr i32 %167, 8
  %169 = load i16, ptr %22, align 2
  %170 = zext i16 %169 to i32
  %171 = add nsw i32 %170, %168
  %172 = trunc i32 %171 to i16
  store i16 %172, ptr %22, align 2
  %173 = load i16, ptr %22, align 2
  %174 = zext i16 %173 to i32
  %175 = ashr i32 %174, 8
  store i32 %175, ptr %10, align 4
  call void @llvm.lifetime.end.p0(i64 2, ptr %22) #2
  br label %176

176:                                              ; preds = %157
  br label %177

177:                                              ; preds = %176
  br label %178

178:                                              ; preds = %177, %81
  %179 = load i32, ptr %10, align 4
  %180 = shl i32 %179, 16
  %181 = load i32, ptr %9, align 4
  %182 = shl i32 %181, 8
  %183 = or i32 %180, %182
  %184 = load i32, ptr %8, align 4
  %185 = or i32 %183, %184
  store i32 %185, ptr %7, align 4
  %186 = load i32, ptr %7, align 4
  %187 = load ptr, ptr %18, align 8
  store i32 %186, ptr %187, align 4
  %188 = load i64, ptr %16, align 8
  %189 = load i64, ptr %14, align 8
  %190 = add i64 %189, %188
  store i64 %190, ptr %14, align 8
  %191 = load ptr, ptr %18, align 8
  %192 = getelementptr inbounds nuw i32, ptr %191, i32 1
  store ptr %192, ptr %18, align 8
  br label %77, !llvm.loop !306

193:                                              ; preds = %77
  %194 = load i64, ptr %15, align 8
  %195 = load i64, ptr %13, align 8
  %196 = add i64 %195, %194
  store i64 %196, ptr %13, align 8
  %197 = load ptr, ptr %2, align 8
  %198 = getelementptr inbounds nuw %struct.SDL_BlitInfo, ptr %197, i32 0, i32 10
  %199 = load i32, ptr %198, align 8
  %200 = load ptr, ptr %2, align 8
  %201 = getelementptr inbounds nuw %struct.SDL_BlitInfo, ptr %200, i32 0, i32 7
  %202 = load ptr, ptr %201, align 8
  %203 = sext i32 %199 to i64
  %204 = getelementptr inbounds i8, ptr %202, i64 %203
  store ptr %204, ptr %201, align 8
  call void @llvm.lifetime.end.p0(i64 4, ptr %19) #2
  call void @llvm.lifetime.end.p0(i64 8, ptr %18) #2
  call void @llvm.lifetime.end.p0(i64 8, ptr %17) #2
  br label %60, !llvm.loop !307

205:                                              ; preds = %60
  call void @llvm.lifetime.end.p0(i64 8, ptr %16) #2
  call void @llvm.lifetime.end.p0(i64 8, ptr %15) #2
  call void @llvm.lifetime.end.p0(i64 8, ptr %14) #2
  call void @llvm.lifetime.end.p0(i64 8, ptr %13) #2
  call void @llvm.lifetime.end.p0(i64 8, ptr %12) #2
  call void @llvm.lifetime.end.p0(i64 8, ptr %11) #2
  call void @llvm.lifetime.end.p0(i64 4, ptr %10) #2
  call void @llvm.lifetime.end.p0(i64 4, ptr %9) #2
  call void @llvm.lifetime.end.p0(i64 4, ptr %8) #2
  call void @llvm.lifetime.end.p0(i64 4, ptr %7) #2
  call void @llvm.lifetime.end.p0(i64 4, ptr %6) #2
  call void @llvm.lifetime.end.p0(i64 4, ptr %5) #2
  call void @llvm.lifetime.end.p0(i64 4, ptr %4) #2
  call void @llvm.lifetime.end.p0(i64 4, ptr %3) #2
  ret void
}